(dp1
VCanada
p2
(V60.10867
p3
V-113.64258
p4
tp5
sVMississippi
p6
(V32.75041
p7
V-89.75036
p8
tp9
sVNorth Tenth Street
p10
(V22.49471
p11
V114.13812
p12
tp13
sVCherry Street
p14
(V34.58808
p15
V-112.04182
p16
tp17
sVParis
p18
(V48.85341
p19
V2.3488
p20
tp21
sVKensington
p22
(V42.92703
p23
V-70.94394
p24
tp25
sVBonhag
p26
(S''
S''
tp27
sVIllinois
p28
(V40.00032
p29
V-89.25037
p30
tp31
sVThird National Bank
p32
(V-33.57917
p33
V151.30833
p34
tp35
sVNorth
p36
(V22.49471
p37
V114.13812
p38
tp39
sVWabash
p40
(V34.38871
p41
V-90.82872
p42
tp43
sVIndiana
p44
(V40.00032
p45
V-86.25027
p46
tp47
sVSpring Garden Street
p48
(V45.96667
p49
V23.78333
p50
tp51
sVRepublic of Texas
p52
(V39.96258
p53
V-79.87671
p54
tp55
sVTexas
p56
(V33.24095
p57
V-85.19883
p58
tp59
sVStrobik
p60
g27
sVSecond Street
p61
(V-33.575
p62
V151.30833
p63
tp64
sVPHILADELPHIA
p65
(V39.95234
p66
V-75.16379
p67
tp68
sVMoyamensing Prison
p69
g27
sVSouth Philadelphia
p70
(V-6.33333
p71
V39.5
p72
tp73
sVTricotrin
p74
g27
sVArundel
p75
(V43.38259
p76
V-70.47783
p77
tp78
sVAtlantic
p79
(V43.5827
p80
V-65.34141
p81
tp82
sVBrussels
p83
(V50.85045
p84
V4.34878
p85
tp86
sVSouth Second Street
p87
(V-6.33333
p88
V39.5
p89
tp90
sVSpain
p91
(V40
p92
V-4
p93
tp94
sVState Penitentiary
p95
(V-25.06609
p96
V152.20463
p97
tp98
sVIllinois Central
p99
(V40.00032
p100
V-89.25037
p101
tp102
sVState Street
p103
(V-25.06609
p104
V152.20463
p105
tp106
sVAlaska
p107
(V64.00028
p108
V-150.00028
p109
tp110
sVAlta
p111
(V69.96887
p112
V23.27165
p113
tp114
sVDesmas
p115
g27
sVSt. Timothy
p116
(V58.73488
p117
V5.64929
p118
tp119
sVRome
p120
(V41.89193
p121
V12.51133
p122
tp123
sVNormandy
p124
(V49.19906
p125
V0.49988
p126
tp127
sVMissouri
p128
(V38.25031
p129
V-92.50046
p130
tp131
sVWissahickon
p132
(V40.01733
p133
V-75.20935
p134
tp135
sVNew York Central
p136
(V30.03593
p137
V-90.02561
p138
tp139
sVPhiladelphy
p140
g27
sVEngland
p141
(V34.54426
p142
V-91.96903
p143
tp144
sVBroad Street
p145
(V33.2929
p146
V-92.0743
p147
tp148
sVPittsburg
p149
(V38.87144
p150
V-89.21174
p151
tp152
sVBaltimore
p153
(V39.29038
p154
V-76.61219
p155
tp156
sVSt. Agatha
p157
(V58.73488
p158
V5.64929
p159
tp160
sVWashington
p161
(V54.9
p162
V-1.51667
p163
tp164
sVSchuylkill
p165
(V39.94233
p166
V-75.18712
p167
tp168
sVLondon
p169
(V51.50853
p170
V-0.12574
p171
tp172
sVCaligula
p173
g27
sVBroadway
p174
(V52.21778
p175
V-6.40333
p176
tp177
sVHudson Canal
p178
(V41.2748
p179
V-75.83603
p180
tp181
sVTurkey
p182
(V37.47926
p183
V-83.50768
p184
tp185
sVBeaumont
p186
(V-34.94899
p187
V138.66188
p188
tp189
sVGulf
p190
(V-7.7246
p191
V145.08545
p192
tp193
sVWest
p194
(V33.19707
p195
V-89.77731
p196
tp197
sVFrance
p198
(V46
p199
V2
tp200
sVState
p201
(V-25.06609
p202
V152.20463
p203
tp204
sVSemple
p205
(V47.98346
p206
V-81.31652
p207
tp208
sVGirard Avenue
p209
(V41.15395
p210
V-80.70147
p211
tp212
sVMaryland
p213
(V39.00039
p214
V-76.74997
p215
tp216
sVEast
p217
(V65
p218
V-15
p219
tp220
sVGreat Lakes
p221
g27
sVChestnut
p222
(V32.05683
p223
V-93.01627
p224
tp225
sVArizona
p226
(V34.5003
p227
V-111.50098
p228
tp229
sVESQ.
p230
g27
sVNew Market Street
p231
(V29.94322
p232
V-90.35345
p233
tp234
sVCuba
p235
(V22
p236
V-79.5
p237
tp238
sVCastile
p239
(V42.62895
p240
V-78.05445
p241
tp242
sVBoule
p243
(V7.95389
p244
V-9.37472
p245
tp246
sVSouth Third Street
p247
(V-6.33333
p248
V39.5
p249
tp250
sVSioux City
p251
(V46.73716
p252
V-90.88018
p253
tp254
sVNew York
p255
(V30.03593
p256
V-90.02561
p257
tp258
sVMassachusetts
p259
(V42.36565
p260
V-71.10832
p261
tp262
sVFront Street
p263
(V45.27941
p264
V7.66425
p265
tp266
sVErie Canal
p267
(V42.12922
p268
V-80.08506
p269
tp270
sVCamden
p271
(V-34.0161
p272
V150.72521
p273
tp274
sVAmerica
p275
(V26.0173
p276
V-104.41406
p277
tp278
sVRock Island
p279
(V55.46667
p280
V-1.66667
p281
tp282
sVLake Shore Railroad
p283
(V-44.83333
p284
V168.5
p285
tp286
sVCyrus Field
p287
(V38.30536
p288
V-82.57266
p289
tp290
sVPacific Ocean
p291
(V47.26455
p292
V-122.25012
p293
tp294
sVNorthern Pacific
p295
(V-9.75
p296
V30.75
p297
tp298
sVRiviera
p299
(V27.29865
p300
V-97.815
p301
tp302
sVNorth Twenty-first Street
p303
(V22.49471
p304
V114.13812
p305
tp306
sVFlorida
p307
(V28.75054
p308
V-82.5001
p309
tp310
sVRhode Island
p311
(V53.35222
p312
V-7.20167
p313
tp314
sVUnited States
p315
(V37.99066
p316
V-81.4265
p317
tp318
sVDead Sea
p319
g27
sVSan Pedro
p320
(V-15.51989
p321
V167.16235
p322
tp323
sVOhio
p324
(V31.53933
p325
V-98.08614
p326
tp327
sVRussia
p328
(V60
p329
V100
p330
tp331
sVEastern District
p332
(V19.31667
p333
V-81.13333
p334
tp335
sVNewfoundland
p336
(V38.13147
p337
V-83.09934
p338
tp339
sVWest Philadelphia
p340
(V33.19707
p341
V-89.77731
p342
tp343
sVBoston
p344
(V42.35843
p345
V-71.05977
p346
tp347
sVSouth Sixth Street
p348
(V-6.33333
p349
V39.5
p350
tp351
sVOwen
p352
(V-34.27204
p353
V138.54439
p354
tp355
sVNorth Carolina
p356
(V22.49471
p357
V114.13812
p358
tp359
sVSouth Ninth Street
p360
(V-6.33333
p361
V39.5
p362
tp363
sVGarden of Eden
p364
(V41.8891
p365
V-111.38576
p366
tp367
sVNorthern Pacific Railroad
p368
(V-9.75
p369
V30.75
p370
tp371
sVThird Street
p372
(V-33.57917
p373
V151.30833
p374
tp375
sVPanama
p376
(V9
V-80
p377
tp378
sVDelaware
p379
(V39.00039
p380
V-75.49992
p381
tp382
sVMycteroperca
p383
g27
sVUnited States Bank
p384
(V37.99066
p385
V-81.4265
p386
tp387
sVProvidence
p388
(V41.82399
p389
V-71.41283
p390
tp391
sVVicksburg
p392
(V39.0906
p393
V-87.19807
p394
tp395
sVRittenhouse Square
p396
(V41.25536
p397
V-76.23466
p398
tp399
sVIreland
p400
(V38.81566
p401
V-80.46175
p402
tp403
sVCentral Pacific
p404
(V30.55435
p405
V-91.03677
p406
tp407
sVEurope
p408
(V48.69096
p409
V9.14062
p410
tp411
sVColumbia River
p412
(V34.00071
p413
V-81.03481
p414
tp415
sVTenth Street
p416
g27
sVPanama Canal
p417
(V9
V-80
p418
tp419
sVButtonwood Street
p420
(V39.68345
p421
V-75.55659
p422
tp423
sVChapin
p424
(V42.83358
p425
V-93.22215
p426
tp427
sVLake Michigan
p428
(V-44.83333
p429
V168.5
p430
tp431
sVPassayunk Avenue
p432
g27
sVGermantown
p433
(V43.22862
p434
V-88.11037
p435
tp436
sVLake Superior
p437
(V-44.83333
p438
V168.5
p439
tp440
sVPrinceton
p441
(V40.34872
p442
V-74.65905
p443
tp444
sVPennsylvania
p445
(V30.87324
p446
V-88.0475
p447
tp448
sVDock Street
p449
(V52.18122
p450
V7.9101
p451
tp452
sVNorth Front Street
p453
(V22.49471
p454
V114.13812
p455
tp456
sVSouth Broad Street
p457
(V-6.33333
p458
V39.5
p459
tp460
sVPhiladelphia
p461
(V39.95233
p462
V-75.16379
p463
tp464
sVSouthern Pacific
p465
(V-16.5
p466
V27
p467
tp468
sVMessalinas
p469
g27
sVCowperwood
p470
g27
sVGettysburg
p471
(V40.11144
p472
V-84.49523
p473
tp474
sVPacific
p475
(V47.26455
p476
V-122.25012
p477
tp478
sVNewton Targool
p479
(V51.98623
p480
V-2.96407
p481
tp482
sVTwenty-first Street
p483
g27
sVWest Chester
p484
(V33.19707
p485
V-89.77731
p486
tp487
sVNew Orleans
p488
(V30.03593
p489
V-90.02561
p490
tp491
sVMilan
p492
(V45.46427
p493
V9.18951
p494
tp495
sVNorth Fifteenth Street
p496
(V22.49471
p497
V114.13812
p498
tp499
sVWingate
p500
(V54.73242
p501
V-1.37896
p502
tp503
sVShannon
p504
(V52.70389
p505
V-8.86417
p506
tp507
sVVenice
p508
(V41.23389
p509
V-96.35364
p510
tp511
sVSouthwark
p512
(V51.5
p513
V-0.08333
p514
tp515
sVChicago
p516
(V41.85003
p517
V-87.65005
p518
tp519
sVRockies
p520
g27
sVAthens
p521
(V37.97945
p522
V23.71622
p523
tp524
sVLake Shore
p525
(V-44.83333
p526
V168.5
p527
tp528
sVNineteenth Street
p529
g27
sVEastern Penitentiary
p530
(V19.31667
p531
V-81.13333
p532
tp533
sVWycroft
p534
g27
sVSforzas
p535
g27
sVSpringfield
p536
(V39.80172
p537
V-89.64371
p538
tp539
sVWalnut Street
p540
(V41.5567
p541
V-89.59343
p542
tp543
sVMollenhauer
p544
g27
sVVirginia
p545
(V-28.10391
p546
V26.86593
p547
tp548
sVHarrisburg
p549
(V40.2737
p550
V-76.88442
p551
tp552
sVChicago River
p553
(V41.85003
p554
V-87.65005
p555
tp556
sVGermany
p557
(V51.5
p558
V10.5
p559
tp560
sVSt. Agatha 's
p561
(V58.73488
p562
V5.64929
p563
tp564
sVTighes
p565
g27
sVWillow Street
p566
(V37.5912
p567
V-83.81353
p568
tp569
sVFairmount Avenue
p570
(V35.18146
p571
V-85.32357
p572
tp573
sVChesapeake
p574
(V36.81904
p575
V-76.27494
p576
tp577
sVMycteroperca Bonaci
p578
g27
sVWilmington
p579
(V34.22573
p580
V-77.94471
p581
tp582
sVPhiladelphia Public Ledger
p583
(V39.95233
p584
V-75.16379
p585
tp586
sVIndependence Hall
p587
(V39.09112
p588
V-94.41551
p589
tp590
sVNorth Pennsylvania
p591
(V22.49471
p592
V114.13812
p593
tp594
sVEastern Penitentiary of Pennsylvania
p595
(V19.31667
p596
V-81.13333
p597
tp598
sVDuluth
p599
(V46.78327
p600
V-92.10658
p601
tp602
sVGermantown Road
p603
(V43.22862
p604
V-88.11037
p605
tp606
sVGarrison
p607
(V39.40594
p608
V-76.76053
p609
tp610
sVSargasso Sea
p611
g27
sVSouth
p612
(V-6.33333
p613
V39.5
p614
tp615
sVChestnut Street
p616
(V40.05365
p617
V-89.18537
p618
tp619
sVStener
p620
(V61.31999
p621
V11.80265
p622
tp623
sVCallum
p624
(V46.51545
p625
V-80.62755
p626
tp627
sVMexico
p628
(V19.42847
p629
V-99.12766
p630
tp631
sVDelaware Bay
p632
(V39.00039
p633
V-75.49992
p634
tp635
sVCallowhill Street
p636
(V53.05917
p637
V-6.14833
p638
tp639
sVStates
p640
g27
sVPethick
p641
g27
sVPayderson
p642
g27
sVGreece
p643
(V43.20978
p644
V-77.69306
p645
tp646
sVEcclesiastes
p647
g27
sVSt. Paul
p648
(V58.73488
p649
V5.64929
p650
tp651
s.